target datalayout = "e-m:e-p270:32:32-p271:32:32-p272:64:64-i64:64-i128:128-f80:128-n8:16:32:64-S128"
target triple = "x86_64-pc-linux-gnu"

%struct.SurfaceDataRasInfo = type { %struct.SurfaceDataBounds, ptr, i32, i32, i32, i32, ptr, ptr, ptr, ptr, ptr, ptr, i32, %union.anon.0 }
%struct.SurfaceDataBounds = type { i32, i32, i32, i32 }
%union.anon.0 = type { ptr, [56 x i8] }
%struct._CompositeInfo = type { i32, %union.anon.1, i32 }
%union.anon.1 = type { float }

@mul8table = external global [256 x [256 x i8]], align 16

; Function Attrs: nounwind uwtable
define hidden void @IntArgbToByteGraySrcOverMaskBlit(ptr noundef %0, ptr noundef %1, ptr noundef %2, i32 noundef %3, i32 noundef %4, i32 noundef %5, i32 noundef %6, ptr noundef %7, ptr noundef %8, ptr noundef %9, ptr noundef %10) #1 {
  %12 = alloca ptr, align 8
  %13 = alloca ptr, align 8
  %14 = alloca ptr, align 8
  %15 = alloca i32, align 4
  %16 = alloca i32, align 4
  %17 = alloca i32, align 4
  %18 = alloca i32, align 4
  %19 = alloca ptr, align 8
  %20 = alloca ptr, align 8
  %21 = alloca ptr, align 8
  %22 = alloca ptr, align 8
  %23 = alloca i32, align 4
  %24 = alloca i32, align 4
  %25 = alloca i32, align 4
  %26 = alloca ptr, align 8
  %27 = alloca ptr, align 8
  %28 = alloca i32, align 4
  %29 = alloca i32, align 4
  %30 = alloca i32, align 4
  %31 = alloca i32, align 4
  %32 = alloca i32, align 4
  %33 = alloca i32, align 4
  %34 = alloca i32, align 4
  %35 = alloca i32, align 4
  %36 = alloca i32, align 4
  %37 = alloca i32, align 4
  %38 = alloca i32, align 4
  %39 = alloca i32, align 4
  %40 = alloca i32, align 4
  %41 = alloca i32, align 4
  %42 = alloca i32, align 4
  %43 = alloca i32, align 4
  %44 = alloca i32, align 4
  %45 = alloca i32, align 4
  %46 = alloca i32, align 4
  %47 = alloca i32, align 4
  %48 = alloca i32, align 4
  %49 = alloca i32, align 4
  store ptr %0, ptr %12, align 8
  store ptr %1, ptr %13, align 8
  store ptr %2, ptr %14, align 8
  store i32 %3, ptr %15, align 4
  store i32 %4, ptr %16, align 4
  store i32 %5, ptr %17, align 4
  store i32 %6, ptr %18, align 4
  store ptr %7, ptr %19, align 8
  store ptr %8, ptr %20, align 8
  store ptr %9, ptr %21, align 8
  store ptr %10, ptr %22, align 8
  %50 = load ptr, ptr %22, align 8
  %51 = getelementptr inbounds %struct._CompositeInfo, ptr %50, i32 0, i32 1
  %52 = load float, ptr %51, align 4
  %53 = fpext float %52 to double
  %54 = call double @llvm.fmuladd.f64(double %53, double 2.550000e+02, double 5.000000e-01)
  %55 = fptosi double %54 to i32
  store i32 %55, ptr %23, align 4
  %56 = load ptr, ptr %20, align 8
  %57 = getelementptr inbounds %struct.SurfaceDataRasInfo, ptr %56, i32 0, i32 4
  %58 = load i32, ptr %57, align 8
  store i32 %58, ptr %24, align 4
  %59 = load ptr, ptr %19, align 8
  %60 = getelementptr inbounds %struct.SurfaceDataRasInfo, ptr %59, i32 0, i32 4
  %61 = load i32, ptr %60, align 8
  store i32 %61, ptr %25, align 4
  %62 = load ptr, ptr %13, align 8
  store ptr %62, ptr %26, align 8
  %63 = load ptr, ptr %12, align 8
  store ptr %63, ptr %27, align 8
  store i32 0, ptr %28, align 4
  %64 = load i32, ptr %17, align 4
  %65 = mul nsw i32 %64, 4
  %66 = load i32, ptr %24, align 4
  %67 = sub nsw i32 %66, %65
  store i32 %67, ptr %24, align 4
  %68 = load i32, ptr %17, align 4
  %69 = mul nsw i32 %68, 1
  %70 = load i32, ptr %25, align 4
  %71 = sub nsw i32 %70, %69
  store i32 %71, ptr %25, align 4
  %72 = load ptr, ptr %14, align 8
  %73 = icmp ne ptr %72, null
  br i1 %73, label %74, label %237

74:                                               ; preds = %11
  %75 = load i32, ptr %15, align 4
  %76 = load ptr, ptr %14, align 8
  %77 = sext i32 %75 to i64
  %78 = getelementptr inbounds i8, ptr %76, i64 %77
  store ptr %78, ptr %14, align 8
  %79 = load i32, ptr %17, align 4
  %80 = load i32, ptr %16, align 4
  %81 = sub nsw i32 %80, %79
  store i32 %81, ptr %16, align 4
  br label %82

82:                                               ; preds = %232, %74
  %83 = load i32, ptr %17, align 4
  store i32 %83, ptr %29, align 4
  br label %84

84:                                               ; preds = %209, %82
  %85 = load ptr, ptr %14, align 8
  %86 = getelementptr inbounds i8, ptr %85, i32 1
  store ptr %86, ptr %14, align 8
  %87 = load i8, ptr %85, align 1
  %88 = zext i8 %87 to i32
  store i32 %88, ptr %30, align 4
  %89 = load i32, ptr %30, align 4
  %90 = icmp ne i32 %89, 0
  br i1 %90, label %91, label %200

91:                                               ; preds = %84
  %92 = load i32, ptr %30, align 4
  %93 = sext i32 %92 to i64
  %94 = getelementptr inbounds [256 x [256 x i8]], ptr @mul8table, i64 0, i64 %93
  %95 = load i32, ptr %23, align 4
  %96 = sext i32 %95 to i64
  %97 = getelementptr inbounds [256 x i8], ptr %94, i64 0, i64 %96
  %98 = load i8, ptr %97, align 1
  %99 = zext i8 %98 to i32
  store i32 %99, ptr %30, align 4
  br label %100

100:                                              ; preds = %91
  %101 = load ptr, ptr %26, align 8
  %102 = getelementptr inbounds i32, ptr %101, i64 0
  %103 = load i32, ptr %102, align 4
  store i32 %103, ptr %28, align 4
  %104 = load i32, ptr %28, align 4
  %105 = lshr i32 %104, 24
  store i32 %105, ptr %31, align 4
  br label %106

106:                                              ; preds = %100
  %107 = load i32, ptr %30, align 4
  %108 = sext i32 %107 to i64
  %109 = getelementptr inbounds [256 x [256 x i8]], ptr @mul8table, i64 0, i64 %108
  %110 = load i32, ptr %31, align 4
  %111 = sext i32 %110 to i64
  %112 = getelementptr inbounds [256 x i8], ptr %109, i64 0, i64 %111
  %113 = load i8, ptr %112, align 1
  %114 = zext i8 %113 to i32
  store i32 %114, ptr %31, align 4
  %115 = load i32, ptr %31, align 4
  %116 = icmp ne i32 %115, 0
  br i1 %116, label %117, label %199

117:                                              ; preds = %106
  %118 = load i32, ptr %31, align 4
  store i32 %118, ptr %33, align 4
  br label %119

119:                                              ; preds = %117
  br label %120

120:                                              ; preds = %119
  %121 = load i32, ptr %28, align 4
  %122 = and i32 %121, 255
  store i32 %122, ptr %36, align 4
  %123 = load i32, ptr %28, align 4
  %124 = ashr i32 %123, 8
  %125 = and i32 %124, 255
  store i32 %125, ptr %35, align 4
  %126 = load i32, ptr %28, align 4
  %127 = ashr i32 %126, 16
  %128 = and i32 %127, 255
  store i32 %128, ptr %34, align 4
  br label %129

129:                                              ; preds = %120
  %130 = load i32, ptr %34, align 4
  %131 = mul nsw i32 77, %130
  %132 = load i32, ptr %35, align 4
  %133 = mul nsw i32 150, %132
  %134 = add nsw i32 %131, %133
  %135 = load i32, ptr %36, align 4
  %136 = mul nsw i32 29, %135
  %137 = add nsw i32 %134, %136
  %138 = add nsw i32 %137, 128
  %139 = sdiv i32 %138, 256
  %140 = trunc i32 %139 to i8
  %141 = zext i8 %140 to i32
  store i32 %141, ptr %32, align 4
  br label %142

142:                                              ; preds = %129
  %143 = load i32, ptr %31, align 4
  %144 = icmp slt i32 %143, 255
  br i1 %144, label %145, label %181

145:                                              ; preds = %142
  %146 = load i32, ptr %31, align 4
  %147 = sub nsw i32 255, %146
  store i32 %147, ptr %39, align 4
  store i32 255, ptr %37, align 4
  %148 = load i32, ptr %39, align 4
  %149 = sext i32 %148 to i64
  %150 = getelementptr inbounds [256 x [256 x i8]], ptr @mul8table, i64 0, i64 %149
  %151 = load i32, ptr %37, align 4
  %152 = sext i32 %151 to i64
  %153 = getelementptr inbounds [256 x i8], ptr %150, i64 0, i64 %152
  %154 = load i8, ptr %153, align 1
  %155 = zext i8 %154 to i32
  store i32 %155, ptr %37, align 4
  %156 = load i32, ptr %37, align 4
  store i32 %156, ptr %39, align 4
  %157 = load ptr, ptr %27, align 8
  %158 = getelementptr inbounds i8, ptr %157, i64 0
  %159 = load i8, ptr %158, align 1
  %160 = zext i8 %159 to i32
  store i32 %160, ptr %38, align 4
  %161 = load i32, ptr %37, align 4
  %162 = load i32, ptr %31, align 4
  %163 = add nsw i32 %162, %161
  store i32 %163, ptr %31, align 4
  %164 = load i32, ptr %39, align 4
  %165 = sext i32 %164 to i64
  %166 = getelementptr inbounds [256 x [256 x i8]], ptr @mul8table, i64 0, i64 %165
  %167 = load i32, ptr %38, align 4
  %168 = sext i32 %167 to i64
  %169 = getelementptr inbounds [256 x i8], ptr %166, i64 0, i64 %168
  %170 = load i8, ptr %169, align 1
  %171 = zext i8 %170 to i32
  %172 = load i32, ptr %33, align 4
  %173 = sext i32 %172 to i64
  %174 = getelementptr inbounds [256 x [256 x i8]], ptr @mul8table, i64 0, i64 %173
  %175 = load i32, ptr %32, align 4
  %176 = sext i32 %175 to i64
  %177 = getelementptr inbounds [256 x i8], ptr %174, i64 0, i64 %176
  %178 = load i8, ptr %177, align 1
  %179 = zext i8 %178 to i32
  %180 = add nsw i32 %171, %179
  store i32 %180, ptr %32, align 4
  br label %194

181:                                              ; preds = %142
  %182 = load i32, ptr %33, align 4
  %183 = icmp slt i32 %182, 255
  br i1 %183, label %184, label %193

184:                                              ; preds = %181
  %185 = load i32, ptr %33, align 4
  %186 = sext i32 %185 to i64
  %187 = getelementptr inbounds [256 x [256 x i8]], ptr @mul8table, i64 0, i64 %186
  %188 = load i32, ptr %32, align 4
  %189 = sext i32 %188 to i64
  %190 = getelementptr inbounds [256 x i8], ptr %187, i64 0, i64 %189
  %191 = load i8, ptr %190, align 1
  %192 = zext i8 %191 to i32
  store i32 %192, ptr %32, align 4
  br label %193

193:                                              ; preds = %184, %181
  br label %194

194:                                              ; preds = %193, %145
  %195 = load i32, ptr %32, align 4
  %196 = trunc i32 %195 to i8
  %197 = load ptr, ptr %27, align 8
  %198 = getelementptr inbounds i8, ptr %197, i64 0
  store i8 %196, ptr %198, align 1
  br label %199

199:                                              ; preds = %194, %106
  br label %200

200:                                              ; preds = %199, %84
  %201 = load ptr, ptr %26, align 8
  %202 = ptrtoint ptr %201 to i64
  %203 = add nsw i64 %202, 4
  %204 = inttoptr i64 %203 to ptr
  store ptr %204, ptr %26, align 8
  %205 = load ptr, ptr %27, align 8
  %206 = ptrtoint ptr %205 to i64
  %207 = add nsw i64 %206, 1
  %208 = inttoptr i64 %207 to ptr
  store ptr %208, ptr %27, align 8
  br label %209

209:                                              ; preds = %200
  %210 = load i32, ptr %29, align 4
  %211 = add nsw i32 %210, -1
  store i32 %211, ptr %29, align 4
  %212 = icmp sgt i32 %211, 0
  br i1 %212, label %84, label %213, !llvm.loop !69

213:                                              ; preds = %209
  %214 = load ptr, ptr %26, align 8
  %215 = ptrtoint ptr %214 to i64
  %216 = load i32, ptr %24, align 4
  %217 = sext i32 %216 to i64
  %218 = add nsw i64 %215, %217
  %219 = inttoptr i64 %218 to ptr
  store ptr %219, ptr %26, align 8
  %220 = load ptr, ptr %27, align 8
  %221 = ptrtoint ptr %220 to i64
  %222 = load i32, ptr %25, align 4
  %223 = sext i32 %222 to i64
  %224 = add nsw i64 %221, %223
  %225 = inttoptr i64 %224 to ptr
  store ptr %225, ptr %27, align 8
  %226 = load ptr, ptr %14, align 8
  %227 = ptrtoint ptr %226 to i64
  %228 = load i32, ptr %16, align 4
  %229 = sext i32 %228 to i64
  %230 = add nsw i64 %227, %229
  %231 = inttoptr i64 %230 to ptr
  store ptr %231, ptr %14, align 8
  br label %232

232:                                              ; preds = %213
  %233 = load i32, ptr %18, align 4
  %234 = add nsw i32 %233, -1
  store i32 %234, ptr %18, align 4
  %235 = icmp sgt i32 %234, 0
  br i1 %235, label %82, label %236, !llvm.loop !70

236:                                              ; preds = %232
  br label %371

237:                                              ; preds = %11
  br label %238

238:                                              ; preds = %366, %237
  %239 = load i32, ptr %17, align 4
  store i32 %239, ptr %40, align 4
  br label %240

240:                                              ; preds = %349, %238
  br label %241

241:                                              ; preds = %240
  %242 = load ptr, ptr %26, align 8
  %243 = getelementptr inbounds i32, ptr %242, i64 0
  %244 = load i32, ptr %243, align 4
  store i32 %244, ptr %28, align 4
  %245 = load i32, ptr %28, align 4
  %246 = lshr i32 %245, 24
  store i32 %246, ptr %41, align 4
  br label %247

247:                                              ; preds = %241
  %248 = load i32, ptr %23, align 4
  %249 = sext i32 %248 to i64
  %250 = getelementptr inbounds [256 x [256 x i8]], ptr @mul8table, i64 0, i64 %249
  %251 = load i32, ptr %41, align 4
  %252 = sext i32 %251 to i64
  %253 = getelementptr inbounds [256 x i8], ptr %250, i64 0, i64 %252
  %254 = load i8, ptr %253, align 1
  %255 = zext i8 %254 to i32
  store i32 %255, ptr %41, align 4
  %256 = load i32, ptr %41, align 4
  %257 = icmp ne i32 %256, 0
  br i1 %257, label %258, label %340

258:                                              ; preds = %247
  %259 = load i32, ptr %41, align 4
  store i32 %259, ptr %43, align 4
  br label %260

260:                                              ; preds = %258
  br label %261

261:                                              ; preds = %260
  %262 = load i32, ptr %28, align 4
  %263 = and i32 %262, 255
  store i32 %263, ptr %46, align 4
  %264 = load i32, ptr %28, align 4
  %265 = ashr i32 %264, 8
  %266 = and i32 %265, 255
  store i32 %266, ptr %45, align 4
  %267 = load i32, ptr %28, align 4
  %268 = ashr i32 %267, 16
  %269 = and i32 %268, 255
  store i32 %269, ptr %44, align 4
  br label %270

270:                                              ; preds = %261
  %271 = load i32, ptr %44, align 4
  %272 = mul nsw i32 77, %271
  %273 = load i32, ptr %45, align 4
  %274 = mul nsw i32 150, %273
  %275 = add nsw i32 %272, %274
  %276 = load i32, ptr %46, align 4
  %277 = mul nsw i32 29, %276
  %278 = add nsw i32 %275, %277
  %279 = add nsw i32 %278, 128
  %280 = sdiv i32 %279, 256
  %281 = trunc i32 %280 to i8
  %282 = zext i8 %281 to i32
  store i32 %282, ptr %42, align 4
  br label %283

283:                                              ; preds = %270
  %284 = load i32, ptr %41, align 4
  %285 = icmp slt i32 %284, 255
  br i1 %285, label %286, label %322

286:                                              ; preds = %283
  %287 = load i32, ptr %41, align 4
  %288 = sub nsw i32 255, %287
  store i32 %288, ptr %49, align 4
  store i32 255, ptr %47, align 4
  %289 = load i32, ptr %49, align 4
  %290 = sext i32 %289 to i64
  %291 = getelementptr inbounds [256 x [256 x i8]], ptr @mul8table, i64 0, i64 %290
  %292 = load i32, ptr %47, align 4
  %293 = sext i32 %292 to i64
  %294 = getelementptr inbounds [256 x i8], ptr %291, i64 0, i64 %293
  %295 = load i8, ptr %294, align 1
  %296 = zext i8 %295 to i32
  store i32 %296, ptr %47, align 4
  %297 = load i32, ptr %47, align 4
  store i32 %297, ptr %49, align 4
  %298 = load ptr, ptr %27, align 8
  %299 = getelementptr inbounds i8, ptr %298, i64 0
  %300 = load i8, ptr %299, align 1
  %301 = zext i8 %300 to i32
  store i32 %301, ptr %48, align 4
  %302 = load i32, ptr %47, align 4
  %303 = load i32, ptr %41, align 4
  %304 = add nsw i32 %303, %302
  store i32 %304, ptr %41, align 4
  %305 = load i32, ptr %49, align 4
  %306 = sext i32 %305 to i64
  %307 = getelementptr inbounds [256 x [256 x i8]], ptr @mul8table, i64 0, i64 %306
  %308 = load i32, ptr %48, align 4
  %309 = sext i32 %308 to i64
  %310 = getelementptr inbounds [256 x i8], ptr %307, i64 0, i64 %309
  %311 = load i8, ptr %310, align 1
  %312 = zext i8 %311 to i32
  %313 = load i32, ptr %43, align 4
  %314 = sext i32 %313 to i64
  %315 = getelementptr inbounds [256 x [256 x i8]], ptr @mul8table, i64 0, i64 %314
  %316 = load i32, ptr %42, align 4
  %317 = sext i32 %316 to i64
  %318 = getelementptr inbounds [256 x i8], ptr %315, i64 0, i64 %317
  %319 = load i8, ptr %318, align 1
  %320 = zext i8 %319 to i32
  %321 = add nsw i32 %312, %320
  store i32 %321, ptr %42, align 4
  br label %335

322:                                              ; preds = %283
  %323 = load i32, ptr %43, align 4
  %324 = icmp slt i32 %323, 255
  br i1 %324, label %325, label %334

325:                                              ; preds = %322
  %326 = load i32, ptr %43, align 4
  %327 = sext i32 %326 to i64
  %328 = getelementptr inbounds [256 x [256 x i8]], ptr @mul8table, i64 0, i64 %327
  %329 = load i32, ptr %42, align 4
  %330 = sext i32 %329 to i64
  %331 = getelementptr inbounds [256 x i8], ptr %328, i64 0, i64 %330
  %332 = load i8, ptr %331, align 1
  %333 = zext i8 %332 to i32
  store i32 %333, ptr %42, align 4
  br label %334

334:                                              ; preds = %325, %322
  br label %335

335:                                              ; preds = %334, %286
  %336 = load i32, ptr %42, align 4
  %337 = trunc i32 %336 to i8
  %338 = load ptr, ptr %27, align 8
  %339 = getelementptr inbounds i8, ptr %338, i64 0
  store i8 %337, ptr %339, align 1
  br label %340

340:                                              ; preds = %335, %247
  %341 = load ptr, ptr %26, align 8
  %342 = ptrtoint ptr %341 to i64
  %343 = add nsw i64 %342, 4
  %344 = inttoptr i64 %343 to ptr
  store ptr %344, ptr %26, align 8
  %345 = load ptr, ptr %27, align 8
  %346 = ptrtoint ptr %345 to i64
  %347 = add nsw i64 %346, 1
  %348 = inttoptr i64 %347 to ptr
  store ptr %348, ptr %27, align 8
  br label %349

349:                                              ; preds = %340
  %350 = load i32, ptr %40, align 4
  %351 = add nsw i32 %350, -1
  store i32 %351, ptr %40, align 4
  %352 = icmp sgt i32 %351, 0
  br i1 %352, label %240, label %353, !llvm.loop !71

353:                                              ; preds = %349
  %354 = load ptr, ptr %26, align 8
  %355 = ptrtoint ptr %354 to i64
  %356 = load i32, ptr %24, align 4
  %357 = sext i32 %356 to i64
  %358 = add nsw i64 %355, %357
  %359 = inttoptr i64 %358 to ptr
  store ptr %359, ptr %26, align 8
  %360 = load ptr, ptr %27, align 8
  %361 = ptrtoint ptr %360 to i64
  %362 = load i32, ptr %25, align 4
  %363 = sext i32 %362 to i64
  %364 = add nsw i64 %361, %363
  %365 = inttoptr i64 %364 to ptr
  store ptr %365, ptr %27, align 8
  br label %366

366:                                              ; preds = %353
  %367 = load i32, ptr %18, align 4
  %368 = add nsw i32 %367, -1
  store i32 %368, ptr %18, align 4
  %369 = icmp sgt i32 %368, 0
  br i1 %369, label %238, label %370, !llvm.loop !72

370:                                              ; preds = %366
  br label %371

371:                                              ; preds = %370, %236
  ret void
}