; Function Attrs: nofree norecurse nosync nounwind memory(readwrite, inaccessiblemem: none) uwtable
define hidden void @IntArgbToByteGraySrcOverMaskBlit(ptr noundef %0, ptr noundef %1, ptr noundef %2, i32 noundef %3, i32 noundef %4, i32 noundef %5, i32 noundef %6, ptr nocapture noundef readonly %7, ptr nocapture noundef readonly %8, ptr nocapture readnone %9, ptr nocapture noundef readonly %10) #1 {
  %12 = getelementptr inbounds i8, ptr %10, i64 4
  %13 = load float, ptr %12, align 4
  %14 = fpext float %13 to double
  %15 = tail call double @llvm.fmuladd.f64(double %14, double 2.550000e+02, double 5.000000e-01)
  %16 = fptosi double %15 to i32
  %17 = getelementptr inbounds i8, ptr %8, i64 32
  %18 = load i32, ptr %17, align 8
  %19 = getelementptr inbounds i8, ptr %7, i64 32
  %20 = load i32, ptr %19, align 8
  %21 = shl nsw i32 %5, 2
  %22 = sub nsw i32 %18, %21
  %23 = sub nsw i32 %20, %5
  %.not = icmp eq ptr %2, null
  br i1 %.not, label %.preheader, label %27

.preheader:                                       ; preds = %11
  %24 = sext i32 %22 to i64
  %25 = sext i32 %16 to i64
  %26 = sext i32 %23 to i64
  br label %100

27:                                               ; preds = %11
  %28 = sext i32 %3 to i64
  %29 = getelementptr inbounds i8, ptr %2, i64 %28
  %30 = sub nsw i32 %4, %5
  %31 = sext i32 %22 to i64
  %32 = sext i32 %16 to i64
  %33 = sext i32 %23 to i64
  %34 = sext i32 %30 to i64
  br label %35

35:                                               ; preds = %90, %27
  %.099 = phi ptr [ %0, %27 ], [ %94, %90 ]
  %.097 = phi ptr [ %1, %27 ], [ %92, %90 ]
  %.095 = phi i32 [ %6, %27 ], [ %98, %90 ]
  %.0 = phi ptr [ %29, %27 ], [ %97, %90 ]
  br label %36

36:                                               ; preds = %81, %35
  %.0105 = phi i32 [ %5, %35 ], [ %88, %81 ]
  %.1100 = phi ptr [ %.099, %35 ], [ %87, %81 ]
  %.198 = phi ptr [ %.097, %35 ], [ %84, %81 ]
  %.1 = phi ptr [ %.0, %35 ], [ %37, %81 ]
  %37 = getelementptr inbounds i8, ptr %.1, i64 1
  %38 = load i8, ptr %.1, align 1
  %.not117 = icmp eq i8 %38, 0
  br i1 %.not117, label %81, label %39

39:                                               ; preds = %36
  %40 = zext i8 %38 to i64
  %41 = getelementptr inbounds [256 x [256 x i8]], ptr @mul8table, i64 0, i64 %40, i64 %32
  %42 = load i8, ptr %41, align 1
  %43 = load i32, ptr %.198, align 4
  %44 = lshr i32 %43, 24
  %45 = zext i8 %42 to i64
  %46 = zext nneg i32 %44 to i64
  %47 = getelementptr inbounds [256 x [256 x i8]], ptr @mul8table, i64 0, i64 %45, i64 %46
  %48 = load i8, ptr %47, align 1
  %.not118 = icmp eq i8 %48, 0
  br i1 %.not118, label %81, label %49

49:                                               ; preds = %39
  %50 = and i32 %43, 255
  %51 = lshr i32 %43, 8
  %52 = and i32 %51, 255
  %53 = lshr i32 %43, 16
  %54 = and i32 %53, 255
  %55 = mul nuw nsw i32 %54, 77
  %56 = mul nuw nsw i32 %52, 150
  %57 = mul nuw nsw i32 %50, 29
  %58 = add nuw nsw i32 %57, 128
  %59 = add nuw nsw i32 %58, %56
  %60 = add nuw nsw i32 %59, %55
  %61 = lshr i32 %60, 8
  %.not119 = icmp eq i8 %48, -1
  br i1 %.not119, label %79, label %62

62:                                               ; preds = %49
  %63 = xor i8 %48, -1
  %64 = zext i8 %63 to i64
  %65 = getelementptr inbounds [256 x [256 x i8]], ptr @mul8table, i64 0, i64 %64, i64 255
  %66 = load i8, ptr %65, align 1
  %67 = load i8, ptr %.1100, align 1
  %68 = zext i8 %66 to i64
  %69 = zext i8 %67 to i64
  %70 = getelementptr inbounds [256 x [256 x i8]], ptr @mul8table, i64 0, i64 %68, i64 %69
  %71 = load i8, ptr %70, align 1
  %72 = zext i8 %71 to i32
  %73 = zext i8 %48 to i64
  %74 = zext nneg i32 %61 to i64
  %75 = getelementptr inbounds [256 x [256 x i8]], ptr @mul8table, i64 0, i64 %73, i64 %74
  %76 = load i8, ptr %75, align 1
  %77 = zext i8 %76 to i32
  %78 = add nuw nsw i32 %77, %72
  br label %79

79:                                               ; preds = %49, %62
  %.0106 = phi i32 [ %78, %62 ], [ %61, %49 ]
  %80 = trunc i32 %.0106 to i8
  store i8 %80, ptr %.1100, align 1
  br label %81

81:                                               ; preds = %39, %79, %36
  %82 = ptrtoint ptr %.198 to i64
  %83 = add nsw i64 %82, 4
  %84 = inttoptr i64 %83 to ptr
  %85 = ptrtoint ptr %.1100 to i64
  %86 = add nsw i64 %85, 1
  %87 = inttoptr i64 %86 to ptr
  %88 = add nsw i32 %.0105, -1
  %89 = icmp sgt i32 %.0105, 1
  br i1 %89, label %36, label %90, !llvm.loop !65

90:                                               ; preds = %81
  %91 = add nsw i64 %83, %31
  %92 = inttoptr i64 %91 to ptr
  %93 = add nsw i64 %86, %33
  %94 = inttoptr i64 %93 to ptr
  %95 = ptrtoint ptr %37 to i64
  %96 = add nsw i64 %95, %34
  %97 = inttoptr i64 %96 to ptr
  %98 = add nsw i32 %.095, -1
  %99 = icmp sgt i32 %.095, 1
  br i1 %99, label %35, label %.loopexit, !llvm.loop !66

100:                                              ; preds = %.preheader, %148
  %.2101 = phi ptr [ %152, %148 ], [ %0, %.preheader ]
  %.2 = phi ptr [ %150, %148 ], [ %1, %.preheader ]
  %.196 = phi i32 [ %153, %148 ], [ %6, %.preheader ]
  br label %101

101:                                              ; preds = %139, %100
  %.0104 = phi i32 [ %5, %100 ], [ %146, %139 ]
  %.3102 = phi ptr [ %.2101, %100 ], [ %145, %139 ]
  %.3 = phi ptr [ %.2, %100 ], [ %142, %139 ]
  %102 = load i32, ptr %.3, align 4
  %103 = lshr i32 %102, 24
  %104 = zext nneg i32 %103 to i64
  %105 = getelementptr inbounds [256 x [256 x i8]], ptr @mul8table, i64 0, i64 %25, i64 %104
  %106 = load i8, ptr %105, align 1
  %.not115 = icmp eq i8 %106, 0
  br i1 %.not115, label %139, label %107

107:                                              ; preds = %101
  %108 = and i32 %102, 255
  %109 = lshr i32 %102, 8
  %110 = and i32 %109, 255
  %111 = lshr i32 %102, 16
  %112 = and i32 %111, 255
  %113 = mul nuw nsw i32 %112, 77
  %114 = mul nuw nsw i32 %110, 150
  %115 = mul nuw nsw i32 %108, 29
  %116 = add nuw nsw i32 %115, 128
  %117 = add nuw nsw i32 %116, %114
  %118 = add nuw nsw i32 %117, %113
  %119 = lshr i32 %118, 8
  %.not116 = icmp eq i8 %106, -1
  br i1 %.not116, label %137, label %120

120:                                              ; preds = %107
  %121 = xor i8 %106, -1
  %122 = zext i8 %121 to i64
  %123 = getelementptr inbounds [256 x [256 x i8]], ptr @mul8table, i64 0, i64 %122, i64 255
  %124 = load i8, ptr %123, align 1
  %125 = load i8, ptr %.3102, align 1
  %126 = zext i8 %124 to i64
  %127 = zext i8 %125 to i64
  %128 = getelementptr inbounds [256 x [256 x i8]], ptr @mul8table, i64 0, i64 %126, i64 %127
  %129 = load i8, ptr %128, align 1
  %130 = zext i8 %129 to i32
  %131 = zext i8 %106 to i64
  %132 = zext nneg i32 %119 to i64
  %133 = getelementptr inbounds [256 x [256 x i8]], ptr @mul8table, i64 0, i64 %131, i64 %132
  %134 = load i8, ptr %133, align 1
  %135 = zext i8 %134 to i32
  %136 = add nuw nsw i32 %135, %130
  br label %137

137:                                              ; preds = %107, %120
  %.0103 = phi i32 [ %136, %120 ], [ %119, %107 ]
  %138 = trunc i32 %.0103 to i8
  store i8 %138, ptr %.3102, align 1
  br label %139

139:                                              ; preds = %137, %101
  %140 = ptrtoint ptr %.3 to i64
  %141 = add nsw i64 %140, 4
  %142 = inttoptr i64 %141 to ptr
  %143 = ptrtoint ptr %.3102 to i64
  %144 = add nsw i64 %143, 1
  %145 = inttoptr i64 %144 to ptr
  %146 = add nsw i32 %.0104, -1
  %147 = icmp sgt i32 %.0104, 1
  br i1 %147, label %101, label %148, !llvm.loop !67

148:                                              ; preds = %139
  %149 = add nsw i64 %141, %24
  %150 = inttoptr i64 %149 to ptr
  %151 = add nsw i64 %144, %26
  %152 = inttoptr i64 %151 to ptr
  %153 = add nsw i32 %.196, -1
  %154 = icmp sgt i32 %.196, 1
  br i1 %154, label %100, label %.loopexit, !llvm.loop !68

.loopexit:                                        ; preds = %90, %148
  ret void
}